---
triple:          'arm64-apple-darwin'
binary-path:     '/Users/moonjam/Desktop/Code/CSES/Sorting and Searching/output/Josephus Problem I'
relocations:
  - { offsetInCU: 0x345E, offset: 0x345E, size: 0x8, addend: 0x0, symName: __ZNSt3__17advanceB7v160006INS_15__list_iteratorIxPvEEllvEEvRT_T0_, symObjAddr: 0x156C, symBinAddr: 0x100002F04, symSize: 0x50 }
  - { offsetInCU: 0x365D, offset: 0x365D, size: 0x8, addend: 0x0, symName: __ZNSt3__124__put_character_sequenceB7v160006IcNS_11char_traitsIcEEEERNS_13basic_ostreamIT_T0_EES7_PKS4_m, symObjAddr: 0x16B4, symBinAddr: 0x10000304C, symSize: 0x1EC }
  - { offsetInCU: 0x6777, offset: 0x6777, size: 0x8, addend: 0x0, symName: __ZNSt3__14nextB7v160006INS_15__list_iteratorIxPvEEEENS_9enable_ifIXsr25__is_cpp17_input_iteratorIT_EE5valueES5_E4typeES5_NS_15iterator_traitsIS5_E15difference_typeE, symObjAddr: 0x478, symBinAddr: 0x100001E10, symSize: 0x50 }
  - { offsetInCU: 0x67BA, offset: 0x67BA, size: 0x8, addend: 0x0, symName: __ZNSt3__1lsB7v160006INS_11char_traitsIcEEEERNS_13basic_ostreamIcT_EES6_c, symObjAddr: 0x51C, symBinAddr: 0x100001EB4, symSize: 0x34 }
  - { offsetInCU: 0x6800, offset: 0x6800, size: 0x8, addend: 0x0, symName: __ZNSt3__1eqB7v160006ERKNS_15__list_iteratorIxPvEES4_, symObjAddr: 0x67C, symBinAddr: 0x100002014, symSize: 0x30 }
  - { offsetInCU: 0x683D, offset: 0x683D, size: 0x8, addend: 0x0, symName: __ZNSt3__14prevB7v160006INS_15__list_iteratorIxPvEEEENS_9enable_ifIXsr25__is_cpp17_input_iteratorIT_EE5valueES5_E4typeES5_NS_15iterator_traitsIS5_E15difference_typeE, symObjAddr: 0x6AC, symBinAddr: 0x100002044, symSize: 0x58 }
  - { offsetInCU: 0x6880, offset: 0x6880, size: 0x8, addend: 0x0, symName: __ZNSt3__118__debug_db_erase_cB7v160006INS_10__list_impIxNS_9allocatorIxEEEEEEvPT_, symObjAddr: 0x8B0, symBinAddr: 0x100002248, symSize: 0x10 }
  - { offsetInCU: 0x68B1, offset: 0x68B1, size: 0x8, addend: 0x0, symName: __ZNSt3__125__debug_db_invalidate_allB7v160006INS_10__list_impIxNS_9allocatorIxEEEEEEvPT_, symObjAddr: 0xA3C, symBinAddr: 0x1000023D4, symSize: 0x10 }
  - { offsetInCU: 0x6915, offset: 0x6915, size: 0x8, addend: 0x0, symName: __ZNSt3__119__libcpp_deallocateB7v160006EPvmm, symObjAddr: 0xBAC, symBinAddr: 0x100002544, symSize: 0x30 }
  - { offsetInCU: 0x695D, offset: 0x695D, size: 0x8, addend: 0x0, symName: __ZNSt3__127__do_deallocate_handle_sizeB7v160006IJEEEvPvmDpT_, symObjAddr: 0xBDC, symBinAddr: 0x100002574, symSize: 0x28 }
  - { offsetInCU: 0x699B, offset: 0x699B, size: 0x8, addend: 0x0, symName: __ZNSt3__124__libcpp_operator_deleteB7v160006IJPvEEEvDpT_, symObjAddr: 0xC04, symBinAddr: 0x10000259C, symSize: 0x24 }
  - { offsetInCU: 0x69D0, offset: 0x69D0, size: 0x8, addend: 0x0, symName: __ZNSt3__119__debug_db_insert_cB7v160006INS_4listIxNS_9allocatorIxEEEEEEvPT_, symObjAddr: 0xCB4, symBinAddr: 0x10000264C, symSize: 0x10 }
  - { offsetInCU: 0x6A1F, offset: 0x6A1F, size: 0x8, addend: 0x0, symName: __ZNSt3__117__libcpp_allocateB7v160006Emm, symObjAddr: 0x1188, symBinAddr: 0x100002B20, symSize: 0x28 }
  - { offsetInCU: 0x6A5C, offset: 0x6A5C, size: 0x8, addend: 0x0, symName: __ZNSt3__121__libcpp_operator_newB7v160006IJmEEEPvDpT_, symObjAddr: 0x11C8, symBinAddr: 0x100002B60, symSize: 0x24 }
  - { offsetInCU: 0x6A95, offset: 0x6A95, size: 0x8, addend: 0x0, symName: __ZNSt3__121__convert_to_integralB7v160006El, symObjAddr: 0x15BC, symBinAddr: 0x100002F54, symSize: 0x14 }
  - { offsetInCU: 0x6AC1, offset: 0x6AC1, size: 0x8, addend: 0x0, symName: __ZNSt3__19__advanceB7v160006INS_15__list_iteratorIxPvEEEEvRT_NS_15iterator_traitsIS4_E15difference_typeENS_26bidirectional_iterator_tagE, symObjAddr: 0x15D0, symBinAddr: 0x100002F68, symSize: 0xA4 }
  - { offsetInCU: 0x6B0A, offset: 0x6B0A, size: 0x8, addend: 0x0, symName: __ZNSt3__116__pad_and_outputB7v160006IcNS_11char_traitsIcEEEENS_19ostreambuf_iteratorIT_T0_EES6_PKS4_S8_S8_RNS_8ios_baseES4_, symObjAddr: 0x18BC, symBinAddr: 0x100003254, symSize: 0x240 }
  - { offsetInCU: 0x6BD9, offset: 0x6BD9, size: 0x8, addend: 0x0, symName: __ZNSt3__119__debug_db_insert_cB7v160006INS_12basic_stringIcNS_11char_traitsIcEENS_9allocatorIcEEEEEEvPT_, symObjAddr: 0x1D70, symBinAddr: 0x100003708, symSize: 0x10 }
  - { offsetInCU: 0x6C0A, offset: 0x6C0A, size: 0x8, addend: 0x0, symName: __ZNSt3__112__to_addressB7v160006IKcEEPT_S3_, symObjAddr: 0x1E3C, symBinAddr: 0x1000037D4, symSize: 0x14 }
  - { offsetInCU: 0x6C72, offset: 0x6C72, size: 0x8, addend: 0x0, symName: __ZNSt3__19use_facetB7v160006INS_5ctypeIcEEEERKT_RKNS_6localeE, symObjAddr: 0x20BC, symBinAddr: 0x100003A54, symSize: 0x2C }
  - { offsetInCU: 0x7226, offset: 0x7226, size: 0x8, addend: 0x0, symName: __ZSt28__throw_bad_array_new_lengthB7v160006v, symObjAddr: 0x1154, symBinAddr: 0x100002AEC, symSize: 0x34 }
  - { offsetInCU: 0x9AD5, offset: 0x9AD5, size: 0x8, addend: 0x0, symName: _main, symObjAddr: 0x0, symBinAddr: 0x100001998, symSize: 0x358 }
  - { offsetInCU: 0x9D2F, offset: 0x9D2F, size: 0x8, addend: 0x0, symName: __ZNSt3__14listIxNS_9allocatorIxEEEC1B7v160006Ev, symObjAddr: 0x358, symBinAddr: 0x100001CF0, symSize: 0x2C }
  - { offsetInCU: 0x9D59, offset: 0x9D59, size: 0x8, addend: 0x0, symName: __ZNSt3__14listIxNS_9allocatorIxEEE9push_backERKx, symObjAddr: 0x384, symBinAddr: 0x100001D1C, symSize: 0xF4 }
  - { offsetInCU: 0x9DAE, offset: 0x9DAE, size: 0x8, addend: 0x0, symName: __ZNSt3__14listIxNS_9allocatorIxEEE5beginB7v160006Ev, symObjAddr: 0x4C8, symBinAddr: 0x100001E60, symSize: 0x2C }
  - { offsetInCU: 0x9DD4, offset: 0x9DD4, size: 0x8, addend: 0x0, symName: __ZNKSt3__14listIxNS_9allocatorIxEEE5emptyB7v160006Ev, symObjAddr: 0x4F4, symBinAddr: 0x100001E8C, symSize: 0x28 }
  - { offsetInCU: 0x9DFA, offset: 0x9DFA, size: 0x8, addend: 0x0, symName: __ZNKSt3__115__list_iteratorIxPvEdeB7v160006Ev, symObjAddr: 0x550, symBinAddr: 0x100001EE8, symSize: 0x2C }
  - { offsetInCU: 0x9E20, offset: 0x9E20, size: 0x8, addend: 0x0, symName: __ZNKSt3__14listIxNS_9allocatorIxEEE4sizeB7v160006Ev, symObjAddr: 0x57C, symBinAddr: 0x100001F14, symSize: 0x28 }
  - { offsetInCU: 0x9E46, offset: 0x9E46, size: 0x8, addend: 0x0, symName: __ZNSt3__14listIxNS_9allocatorIxEEE5eraseENS_21__list_const_iteratorIxPvEE, symObjAddr: 0x5A4, symBinAddr: 0x100001F3C, symSize: 0xA4 }
  - { offsetInCU: 0x9EB9, offset: 0x9EB9, size: 0x8, addend: 0x0, symName: __ZNSt3__121__list_const_iteratorIxPvEC1B7v160006ERKNS_15__list_iteratorIxS1_EE, symObjAddr: 0x648, symBinAddr: 0x100001FE0, symSize: 0x34 }
  - { offsetInCU: 0x9EF2, offset: 0x9EF2, size: 0x8, addend: 0x0, symName: __ZNSt3__14listIxNS_9allocatorIxEEE3endB7v160006Ev, symObjAddr: 0x704, symBinAddr: 0x10000209C, symSize: 0x2C }
  - { offsetInCU: 0x9F18, offset: 0x9F18, size: 0x8, addend: 0x0, symName: __ZNSt3__14listIxNS_9allocatorIxEEED1Ev, symObjAddr: 0x730, symBinAddr: 0x1000020C8, symSize: 0x2C }
  - { offsetInCU: 0x9F45, offset: 0x9F45, size: 0x8, addend: 0x0, symName: __ZNSt3__14listIxNS_9allocatorIxEEED2Ev, symObjAddr: 0x75C, symBinAddr: 0x1000020F4, symSize: 0x2C }
  - { offsetInCU: 0x9F72, offset: 0x9F72, size: 0x8, addend: 0x0, symName: __ZNSt3__110__list_impIxNS_9allocatorIxEEED2Ev, symObjAddr: 0x788, symBinAddr: 0x100002120, symSize: 0x3C }
  - { offsetInCU: 0x9F9E, offset: 0x9F9E, size: 0x8, addend: 0x0, symName: __ZNSt3__110__list_impIxNS_9allocatorIxEEE5clearEv, symObjAddr: 0x7C4, symBinAddr: 0x10000215C, symSize: 0xEC }
  - { offsetInCU: 0xA00E, offset: 0xA00E, size: 0x8, addend: 0x0, symName: __ZNKSt3__110__list_impIxNS_9allocatorIxEEE5emptyB7v160006Ev, symObjAddr: 0x8CC, symBinAddr: 0x100002264, symSize: 0x34 }
  - { offsetInCU: 0xA034, offset: 0xA034, size: 0x8, addend: 0x0, symName: __ZNSt3__110__list_impIxNS_9allocatorIxEEE12__node_allocB7v160006Ev, symObjAddr: 0x900, symBinAddr: 0x100002298, symSize: 0x28 }
  - { offsetInCU: 0xA05A, offset: 0xA05A, size: 0x8, addend: 0x0, symName: __ZNKSt3__110__list_impIxNS_9allocatorIxEEE13__end_as_linkB7v160006Ev, symObjAddr: 0x928, symBinAddr: 0x1000022C0, symSize: 0x44 }
  - { offsetInCU: 0xA080, offset: 0xA080, size: 0x8, addend: 0x0, symName: __ZNSt3__110__list_impIxNS_9allocatorIxEEE14__unlink_nodesEPNS_16__list_node_baseIxPvEES7_, symObjAddr: 0x96C, symBinAddr: 0x100002304, symSize: 0x3C }
  - { offsetInCU: 0xA0B5, offset: 0xA0B5, size: 0x8, addend: 0x0, symName: __ZNSt3__110__list_impIxNS_9allocatorIxEEE4__szB7v160006Ev, symObjAddr: 0x9A8, symBinAddr: 0x100002340, symSize: 0x28 }
  - { offsetInCU: 0xA0DB, offset: 0xA0DB, size: 0x8, addend: 0x0, symName: __ZNSt3__116__list_node_baseIxPvE9__as_nodeB7v160006Ev, symObjAddr: 0x9D0, symBinAddr: 0x100002368, symSize: 0x24 }
  - { offsetInCU: 0xA101, offset: 0xA101, size: 0x8, addend: 0x0, symName: __ZNSt3__116allocator_traitsINS_9allocatorINS_11__list_nodeIxPvEEEEE7destroyB7v160006IxvvEEvRS5_PT_, symObjAddr: 0x9F4, symBinAddr: 0x10000238C, symSize: 0x14 }
  - { offsetInCU: 0xA13C, offset: 0xA13C, size: 0x8, addend: 0x0, symName: __ZNSt3__116allocator_traitsINS_9allocatorINS_11__list_nodeIxPvEEEEE10deallocateB7v160006ERS5_PS4_m, symObjAddr: 0xA08, symBinAddr: 0x1000023A0, symSize: 0x34 }
  - { offsetInCU: 0xA17E, offset: 0xA17E, size: 0x8, addend: 0x0, symName: __ZNKSt3__110__list_impIxNS_9allocatorIxEEE4__szB7v160006Ev, symObjAddr: 0xA4C, symBinAddr: 0x1000023E4, symSize: 0x28 }
  - { offsetInCU: 0xA1A4, offset: 0xA1A4, size: 0x8, addend: 0x0, symName: __ZNKSt3__117__compressed_pairImNS_9allocatorINS_11__list_nodeIxPvEEEEE5firstB7v160006Ev, symObjAddr: 0xA74, symBinAddr: 0x10000240C, symSize: 0x24 }
  - { offsetInCU: 0xA1CA, offset: 0xA1CA, size: 0x8, addend: 0x0, symName: __ZNKSt3__122__compressed_pair_elemImLi0ELb0EE5__getB7v160006Ev, symObjAddr: 0xA98, symBinAddr: 0x100002430, symSize: 0x14 }
  - { offsetInCU: 0xA1F0, offset: 0xA1F0, size: 0x8, addend: 0x0, symName: __ZNSt3__117__compressed_pairImNS_9allocatorINS_11__list_nodeIxPvEEEEE6secondB7v160006Ev, symObjAddr: 0xAAC, symBinAddr: 0x100002444, symSize: 0x24 }
  - { offsetInCU: 0xA216, offset: 0xA216, size: 0x8, addend: 0x0, symName: __ZNSt3__122__compressed_pair_elemINS_9allocatorINS_11__list_nodeIxPvEEEELi1ELb1EE5__getB7v160006Ev, symObjAddr: 0xAD0, symBinAddr: 0x100002468, symSize: 0x14 }
  - { offsetInCU: 0xA23C, offset: 0xA23C, size: 0x8, addend: 0x0, symName: __ZNSt3__126__list_node_pointer_traitsIxPvE26__unsafe_link_pointer_castB7v160006EPNS_16__list_node_baseIxS1_EE, symObjAddr: 0xAE4, symBinAddr: 0x10000247C, symSize: 0x14 }
  - { offsetInCU: 0xA260, offset: 0xA260, size: 0x8, addend: 0x0, symName: __ZNSt3__116__list_node_baseIxPvE6__selfB7v160006Ev, symObjAddr: 0xAF8, symBinAddr: 0x100002490, symSize: 0x24 }
  - { offsetInCU: 0xA28B, offset: 0xA28B, size: 0x8, addend: 0x0, symName: __ZNSt3__114pointer_traitsIPNS_16__list_node_baseIxPvEEE10pointer_toB7v160006ERS3_, symObjAddr: 0xB1C, symBinAddr: 0x1000024B4, symSize: 0x14 }
  - { offsetInCU: 0xA2AE, offset: 0xA2AE, size: 0x8, addend: 0x0, symName: __ZNSt3__117__compressed_pairImNS_9allocatorINS_11__list_nodeIxPvEEEEE5firstB7v160006Ev, symObjAddr: 0xB30, symBinAddr: 0x1000024C8, symSize: 0x24 }
  - { offsetInCU: 0xA2D4, offset: 0xA2D4, size: 0x8, addend: 0x0, symName: __ZNSt3__122__compressed_pair_elemImLi0ELb0EE5__getB7v160006Ev, symObjAddr: 0xB54, symBinAddr: 0x1000024EC, symSize: 0x14 }
  - { offsetInCU: 0xA2FA, offset: 0xA2FA, size: 0x8, addend: 0x0, symName: __ZNSt3__19allocatorINS_11__list_nodeIxPvEEE10deallocateB7v160006EPS3_m, symObjAddr: 0xB68, symBinAddr: 0x100002500, symSize: 0x44 }
  - { offsetInCU: 0xA33C, offset: 0xA33C, size: 0x8, addend: 0x0, symName: __ZNSt3__14listIxNS_9allocatorIxEEEC2B7v160006Ev, symObjAddr: 0xC28, symBinAddr: 0x1000025C0, symSize: 0x3C }
  - { offsetInCU: 0xA366, offset: 0xA366, size: 0x8, addend: 0x0, symName: __ZNSt3__110__list_impIxNS_9allocatorIxEEEC2Ev, symObjAddr: 0xC64, symBinAddr: 0x1000025FC, symSize: 0x50 }
  - { offsetInCU: 0xA392, offset: 0xA392, size: 0x8, addend: 0x0, symName: __ZNSt3__116__list_node_baseIxPvEC1B7v160006Ev, symObjAddr: 0xCC4, symBinAddr: 0x10000265C, symSize: 0x2C }
  - { offsetInCU: 0xA3C6, offset: 0xA3C6, size: 0x8, addend: 0x0, symName: __ZNSt3__117__compressed_pairImNS_9allocatorINS_11__list_nodeIxPvEEEEEC1B7v160006IiNS_18__default_init_tagEEEOT_OT0_, symObjAddr: 0xCF0, symBinAddr: 0x100002688, symSize: 0x3C }
  - { offsetInCU: 0xA41E, offset: 0xA41E, size: 0x8, addend: 0x0, symName: __ZNSt3__116__list_node_baseIxPvEC2B7v160006Ev, symObjAddr: 0xD2C, symBinAddr: 0x1000026C4, symSize: 0x4C }
  - { offsetInCU: 0xA448, offset: 0xA448, size: 0x8, addend: 0x0, symName: __ZNSt3__117__compressed_pairImNS_9allocatorINS_11__list_nodeIxPvEEEEEC2B7v160006IiNS_18__default_init_tagEEEOT_OT0_, symObjAddr: 0xD78, symBinAddr: 0x100002710, symSize: 0x40 }
  - { offsetInCU: 0xA4A0, offset: 0xA4A0, size: 0x8, addend: 0x0, symName: __ZNSt3__122__compressed_pair_elemImLi0ELb0EEC2B7v160006IivEEOT_, symObjAddr: 0xDB8, symBinAddr: 0x100002750, symSize: 0x24 }
  - { offsetInCU: 0xA4E2, offset: 0xA4E2, size: 0x8, addend: 0x0, symName: __ZNSt3__122__compressed_pair_elemINS_9allocatorINS_11__list_nodeIxPvEEEELi1ELb1EEC2B7v160006ENS_18__default_init_tagE, symObjAddr: 0xDDC, symBinAddr: 0x100002774, symSize: 0x2C }
  - { offsetInCU: 0xA516, offset: 0xA516, size: 0x8, addend: 0x0, symName: __ZNSt3__19allocatorINS_11__list_nodeIxPvEEEC2B7v160006Ev, symObjAddr: 0xE08, symBinAddr: 0x1000027A0, symSize: 0x2C }
  - { offsetInCU: 0xA540, offset: 0xA540, size: 0x8, addend: 0x0, symName: __ZNSt3__116__non_trivial_ifILb1ENS_9allocatorINS_11__list_nodeIxPvEEEEEC2B7v160006Ev, symObjAddr: 0xE34, symBinAddr: 0x1000027CC, symSize: 0x14 }
  - { offsetInCU: 0xA56A, offset: 0xA56A, size: 0x8, addend: 0x0, symName: __ZNSt3__14listIxNS_9allocatorIxEEE15__allocate_nodeB7v160006ERNS1_INS_11__list_nodeIxPvEEEE, symObjAddr: 0xE48, symBinAddr: 0x1000027E0, symSize: 0x70 }
  - { offsetInCU: 0xA5AE, offset: 0xA5AE, size: 0x8, addend: 0x0, symName: __ZNSt3__116allocator_traitsINS_9allocatorINS_11__list_nodeIxPvEEEEE9constructB7v160006IxJRKxEvEEvRS5_PT_DpOT0_, symObjAddr: 0xEB8, symBinAddr: 0x100002850, symSize: 0x34 }
  - { offsetInCU: 0xA605, offset: 0xA605, size: 0x8, addend: 0x0, symName: __ZNKSt3__110unique_ptrINS_11__list_nodeIxPvEENS_22__allocator_destructorINS_9allocatorIS3_EEEEEptB7v160006Ev, symObjAddr: 0xEEC, symBinAddr: 0x100002884, symSize: 0x28 }
  - { offsetInCU: 0xA62B, offset: 0xA62B, size: 0x8, addend: 0x0, symName: __ZNSt3__14listIxNS_9allocatorIxEEE20__link_nodes_at_backEPNS_16__list_node_baseIxPvEES7_, symObjAddr: 0xF14, symBinAddr: 0x1000028AC, symSize: 0x60 }
  - { offsetInCU: 0xA671, offset: 0xA671, size: 0x8, addend: 0x0, symName: __ZNKSt3__110unique_ptrINS_11__list_nodeIxPvEENS_22__allocator_destructorINS_9allocatorIS3_EEEEE3getB7v160006Ev, symObjAddr: 0xF74, symBinAddr: 0x10000290C, symSize: 0x28 }
  - { offsetInCU: 0xA697, offset: 0xA697, size: 0x8, addend: 0x0, symName: __ZNSt3__111__list_nodeIxPvE9__as_linkB7v160006Ev, symObjAddr: 0xF9C, symBinAddr: 0x100002934, symSize: 0x24 }
  - { offsetInCU: 0xA6BD, offset: 0xA6BD, size: 0x8, addend: 0x0, symName: __ZNSt3__110unique_ptrINS_11__list_nodeIxPvEENS_22__allocator_destructorINS_9allocatorIS3_EEEEE7releaseB7v160006Ev, symObjAddr: 0xFC0, symBinAddr: 0x100002958, symSize: 0x44 }
  - { offsetInCU: 0xA6F2, offset: 0xA6F2, size: 0x8, addend: 0x0, symName: __ZNSt3__110unique_ptrINS_11__list_nodeIxPvEENS_22__allocator_destructorINS_9allocatorIS3_EEEEED1B7v160006Ev, symObjAddr: 0x1004, symBinAddr: 0x10000299C, symSize: 0x2C }
  - { offsetInCU: 0xA71C, offset: 0xA71C, size: 0x8, addend: 0x0, symName: __ZNSt3__116allocator_traitsINS_9allocatorINS_11__list_nodeIxPvEEEEE8allocateB7v160006ERS5_m, symObjAddr: 0x1030, symBinAddr: 0x1000029C8, symSize: 0x2C }
  - { offsetInCU: 0xA74F, offset: 0xA74F, size: 0x8, addend: 0x0, symName: __ZNSt3__122__allocator_destructorINS_9allocatorINS_11__list_nodeIxPvEEEEEC1B7v160006ERS5_m, symObjAddr: 0x105C, symBinAddr: 0x1000029F4, symSize: 0x3C }
  - { offsetInCU: 0xA79A, offset: 0xA79A, size: 0x8, addend: 0x0, symName: __ZNSt3__110unique_ptrINS_11__list_nodeIxPvEENS_22__allocator_destructorINS_9allocatorIS3_EEEEEC1B7v160006ILb1EvEEPS3_NS_16__dependent_typeINS_27__unique_ptr_deleter_sfinaeIS7_EEXT_EE20__good_rval_ref_typeE, symObjAddr: 0x1098, symBinAddr: 0x100002A30, symSize: 0x3C }
  - { offsetInCU: 0xA7EB, offset: 0xA7EB, size: 0x8, addend: 0x0, symName: __ZNSt3__19allocatorINS_11__list_nodeIxPvEEE8allocateB7v160006Em, symObjAddr: 0x10D4, symBinAddr: 0x100002A6C, symSize: 0x5C }
  - { offsetInCU: 0xA829, offset: 0xA829, size: 0x8, addend: 0x0, symName: __ZNSt3__116allocator_traitsINS_9allocatorINS_11__list_nodeIxPvEEEEE8max_sizeB7v160006IS5_vEEmRKS5_, symObjAddr: 0x1130, symBinAddr: 0x100002AC8, symSize: 0x24 }
  - { offsetInCU: 0xA857, offset: 0xA857, size: 0x8, addend: 0x0, symName: __ZNKSt3__19allocatorINS_11__list_nodeIxPvEEE8max_sizeB7v160006Ev, symObjAddr: 0x11B0, symBinAddr: 0x100002B48, symSize: 0x18 }
  - { offsetInCU: 0xA87D, offset: 0xA87D, size: 0x8, addend: 0x0, symName: __ZNSt3__122__allocator_destructorINS_9allocatorINS_11__list_nodeIxPvEEEEEC2B7v160006ERS5_m, symObjAddr: 0x11EC, symBinAddr: 0x100002B84, symSize: 0x2C }
  - { offsetInCU: 0xA8C3, offset: 0xA8C3, size: 0x8, addend: 0x0, symName: __ZNSt3__110unique_ptrINS_11__list_nodeIxPvEENS_22__allocator_destructorINS_9allocatorIS3_EEEEEC2B7v160006ILb1EvEEPS3_NS_16__dependent_typeINS_27__unique_ptr_deleter_sfinaeIS7_EEXT_EE20__good_rval_ref_typeE, symObjAddr: 0x1218, symBinAddr: 0x100002BB0, symSize: 0x48 }
  - { offsetInCU: 0xA914, offset: 0xA914, size: 0x8, addend: 0x0, symName: __ZNSt3__117__compressed_pairIPNS_11__list_nodeIxPvEENS_22__allocator_destructorINS_9allocatorIS3_EEEEEC1B7v160006IRS4_S8_EEOT_OT0_, symObjAddr: 0x1260, symBinAddr: 0x100002BF8, symSize: 0x3C }
  - { offsetInCU: 0xA96C, offset: 0xA96C, size: 0x8, addend: 0x0, symName: __ZNSt3__117__compressed_pairIPNS_11__list_nodeIxPvEENS_22__allocator_destructorINS_9allocatorIS3_EEEEEC2B7v160006IRS4_S8_EEOT_OT0_, symObjAddr: 0x129C, symBinAddr: 0x100002C34, symSize: 0x48 }
  - { offsetInCU: 0xA9C4, offset: 0xA9C4, size: 0x8, addend: 0x0, symName: __ZNSt3__122__compressed_pair_elemIPNS_11__list_nodeIxPvEELi0ELb0EEC2B7v160006IRS4_vEEOT_, symObjAddr: 0x12E4, symBinAddr: 0x100002C7C, symSize: 0x24 }
  - { offsetInCU: 0xAA06, offset: 0xAA06, size: 0x8, addend: 0x0, symName: __ZNSt3__122__compressed_pair_elemINS_22__allocator_destructorINS_9allocatorINS_11__list_nodeIxPvEEEEEELi1ELb0EEC2B7v160006IS7_vEEOT_, symObjAddr: 0x1308, symBinAddr: 0x100002CA0, symSize: 0x24 }
  - { offsetInCU: 0xAA48, offset: 0xAA48, size: 0x8, addend: 0x0, symName: __ZNSt3__19allocatorINS_11__list_nodeIxPvEEE9constructB7v160006IxJRKxEEEvPT_DpOT0_, symObjAddr: 0x132C, symBinAddr: 0x100002CC4, symSize: 0x28 }
  - { offsetInCU: 0xAA9E, offset: 0xAA9E, size: 0x8, addend: 0x0, symName: __ZNKSt3__117__compressed_pairIPNS_11__list_nodeIxPvEENS_22__allocator_destructorINS_9allocatorIS3_EEEEE5firstB7v160006Ev, symObjAddr: 0x1354, symBinAddr: 0x100002CEC, symSize: 0x24 }
  - { offsetInCU: 0xAAC4, offset: 0xAAC4, size: 0x8, addend: 0x0, symName: __ZNKSt3__122__compressed_pair_elemIPNS_11__list_nodeIxPvEELi0ELb0EE5__getB7v160006Ev, symObjAddr: 0x1378, symBinAddr: 0x100002D10, symSize: 0x14 }
  - { offsetInCU: 0xAAEA, offset: 0xAAEA, size: 0x8, addend: 0x0, symName: __ZNSt3__117__compressed_pairIPNS_11__list_nodeIxPvEENS_22__allocator_destructorINS_9allocatorIS3_EEEEE5firstB7v160006Ev, symObjAddr: 0x138C, symBinAddr: 0x100002D24, symSize: 0x24 }
  - { offsetInCU: 0xAB10, offset: 0xAB10, size: 0x8, addend: 0x0, symName: __ZNSt3__122__compressed_pair_elemIPNS_11__list_nodeIxPvEELi0ELb0EE5__getB7v160006Ev, symObjAddr: 0x13B0, symBinAddr: 0x100002D48, symSize: 0x14 }
  - { offsetInCU: 0xAB36, offset: 0xAB36, size: 0x8, addend: 0x0, symName: __ZNSt3__110unique_ptrINS_11__list_nodeIxPvEENS_22__allocator_destructorINS_9allocatorIS3_EEEEED2B7v160006Ev, symObjAddr: 0x13C4, symBinAddr: 0x100002D5C, symSize: 0x30 }
  - { offsetInCU: 0xAB60, offset: 0xAB60, size: 0x8, addend: 0x0, symName: __ZNSt3__110unique_ptrINS_11__list_nodeIxPvEENS_22__allocator_destructorINS_9allocatorIS3_EEEEE5resetB7v160006EPS3_, symObjAddr: 0x13F4, symBinAddr: 0x100002D8C, symSize: 0x78 }
  - { offsetInCU: 0xABA4, offset: 0xABA4, size: 0x8, addend: 0x0, symName: __ZNSt3__117__compressed_pairIPNS_11__list_nodeIxPvEENS_22__allocator_destructorINS_9allocatorIS3_EEEEE6secondB7v160006Ev, symObjAddr: 0x146C, symBinAddr: 0x100002E04, symSize: 0x28 }
  - { offsetInCU: 0xABCA, offset: 0xABCA, size: 0x8, addend: 0x0, symName: __ZNSt3__122__allocator_destructorINS_9allocatorINS_11__list_nodeIxPvEEEEEclB7v160006EPS4_, symObjAddr: 0x1494, symBinAddr: 0x100002E2C, symSize: 0x34 }
  - { offsetInCU: 0xABFE, offset: 0xABFE, size: 0x8, addend: 0x0, symName: __ZNSt3__122__compressed_pair_elemINS_22__allocator_destructorINS_9allocatorINS_11__list_nodeIxPvEEEEEELi1ELb0EE5__getB7v160006Ev, symObjAddr: 0x14C8, symBinAddr: 0x100002E60, symSize: 0x14 }
  - { offsetInCU: 0xAC24, offset: 0xAC24, size: 0x8, addend: 0x0, symName: __ZNSt3__110__list_impIxNS_9allocatorIxEEE5beginB7v160006Ev, symObjAddr: 0x14DC, symBinAddr: 0x100002E74, symSize: 0x30 }
  - { offsetInCU: 0xAC4A, offset: 0xAC4A, size: 0x8, addend: 0x0, symName: __ZNSt3__115__list_iteratorIxPvEC1B7v160006EPNS_16__list_node_baseIxS1_EEPKv, symObjAddr: 0x150C, symBinAddr: 0x100002EA4, symSize: 0x3C }
  - { offsetInCU: 0xAC92, offset: 0xAC92, size: 0x8, addend: 0x0, symName: __ZNSt3__115__list_iteratorIxPvEC2B7v160006EPNS_16__list_node_baseIxS1_EEPKv, symObjAddr: 0x1548, symBinAddr: 0x100002EE0, symSize: 0x24 }
  - { offsetInCU: 0xACDA, offset: 0xACDA, size: 0x8, addend: 0x0, symName: __ZNSt3__115__list_iteratorIxPvEppB7v160006Ev, symObjAddr: 0x1674, symBinAddr: 0x10000300C, symSize: 0x20 }
  - { offsetInCU: 0xAD00, offset: 0xAD00, size: 0x8, addend: 0x0, symName: __ZNSt3__115__list_iteratorIxPvEmmB7v160006Ev, symObjAddr: 0x1694, symBinAddr: 0x10000302C, symSize: 0x20 }
  - { offsetInCU: 0xAD44, offset: 0xAD44, size: 0x8, addend: 0x0, symName: __ZNKSt3__113basic_ostreamIcNS_11char_traitsIcEEE6sentrycvbB7v160006Ev, symObjAddr: 0x18A0, symBinAddr: 0x100003238, symSize: 0x1C }
  - { offsetInCU: 0xAD6A, offset: 0xAD6A, size: 0x8, addend: 0x0, symName: __ZNSt3__119ostreambuf_iteratorIcNS_11char_traitsIcEEEC1B7v160006ERNS_13basic_ostreamIcS2_EE, symObjAddr: 0x1AFC, symBinAddr: 0x100003494, symSize: 0x34 }
  - { offsetInCU: 0xADA2, offset: 0xADA2, size: 0x8, addend: 0x0, symName: __ZNKSt3__18ios_base5flagsB7v160006Ev, symObjAddr: 0x1B30, symBinAddr: 0x1000034C8, symSize: 0x18 }
  - { offsetInCU: 0xADCA, offset: 0xADCA, size: 0x8, addend: 0x0, symName: __ZNKSt3__19basic_iosIcNS_11char_traitsIcEEE4fillB7v160006Ev, symObjAddr: 0x1B48, symBinAddr: 0x1000034E0, symSize: 0x64 }
  - { offsetInCU: 0xADF2, offset: 0xADF2, size: 0x8, addend: 0x0, symName: __ZNKSt3__119ostreambuf_iteratorIcNS_11char_traitsIcEEE6failedB7v160006Ev, symObjAddr: 0x1BAC, symBinAddr: 0x100003544, symSize: 0x24 }
  - { offsetInCU: 0xAE18, offset: 0xAE18, size: 0x8, addend: 0x0, symName: __ZNSt3__19basic_iosIcNS_11char_traitsIcEEE8setstateB7v160006Ej, symObjAddr: 0x1BD0, symBinAddr: 0x100003568, symSize: 0x2C }
  - { offsetInCU: 0xAE4D, offset: 0xAE4D, size: 0x8, addend: 0x0, symName: __ZNKSt3__18ios_base5widthB7v160006Ev, symObjAddr: 0x1BFC, symBinAddr: 0x100003594, symSize: 0x18 }
  - { offsetInCU: 0xAE75, offset: 0xAE75, size: 0x8, addend: 0x0, symName: __ZNSt3__115basic_streambufIcNS_11char_traitsIcEEE5sputnB7v160006EPKcl, symObjAddr: 0x1C14, symBinAddr: 0x1000035AC, symSize: 0x3C }
  - { offsetInCU: 0xAEB7, offset: 0xAEB7, size: 0x8, addend: 0x0, symName: __ZNSt3__112basic_stringIcNS_11char_traitsIcEENS_9allocatorIcEEEC1B7v160006Emc, symObjAddr: 0x1C50, symBinAddr: 0x1000035E8, symSize: 0x3C }
  - { offsetInCU: 0xAEFF, offset: 0xAEFF, size: 0x8, addend: 0x0, symName: __ZNKSt3__112basic_stringIcNS_11char_traitsIcEENS_9allocatorIcEEE4dataB7v160006Ev, symObjAddr: 0x1C8C, symBinAddr: 0x100003624, symSize: 0x28 }
  - { offsetInCU: 0xAF25, offset: 0xAF25, size: 0x8, addend: 0x0, symName: __ZNSt3__18ios_base5widthB7v160006El, symObjAddr: 0x1CB4, symBinAddr: 0x10000364C, symSize: 0x2C }
  - { offsetInCU: 0xAF6B, offset: 0xAF6B, size: 0x8, addend: 0x0, symName: __ZNSt3__112basic_stringIcNS_11char_traitsIcEENS_9allocatorIcEEEC2B7v160006Emc, symObjAddr: 0x1CE0, symBinAddr: 0x100003678, symSize: 0x54 }
  - { offsetInCU: 0xAFB3, offset: 0xAFB3, size: 0x8, addend: 0x0, symName: __ZNSt3__117__compressed_pairINS_12basic_stringIcNS_11char_traitsIcEENS_9allocatorIcEEE5__repES5_EC1B7v160006INS_18__default_init_tagESA_EEOT_OT0_, symObjAddr: 0x1D34, symBinAddr: 0x1000036CC, symSize: 0x3C }
  - { offsetInCU: 0xB00B, offset: 0xB00B, size: 0x8, addend: 0x0, symName: __ZNSt3__117__compressed_pairINS_12basic_stringIcNS_11char_traitsIcEENS_9allocatorIcEEE5__repES5_EC2B7v160006INS_18__default_init_tagESA_EEOT_OT0_, symObjAddr: 0x1D80, symBinAddr: 0x100003718, symSize: 0x3C }
  - { offsetInCU: 0xB063, offset: 0xB063, size: 0x8, addend: 0x0, symName: __ZNSt3__122__compressed_pair_elemINS_12basic_stringIcNS_11char_traitsIcEENS_9allocatorIcEEE5__repELi0ELb0EEC2B7v160006ENS_18__default_init_tagE, symObjAddr: 0x1DBC, symBinAddr: 0x100003754, symSize: 0x14 }
  - { offsetInCU: 0xB097, offset: 0xB097, size: 0x8, addend: 0x0, symName: __ZNSt3__122__compressed_pair_elemINS_9allocatorIcEELi1ELb1EEC2B7v160006ENS_18__default_init_tagE, symObjAddr: 0x1DD0, symBinAddr: 0x100003768, symSize: 0x2C }
  - { offsetInCU: 0xB0CB, offset: 0xB0CB, size: 0x8, addend: 0x0, symName: __ZNSt3__19allocatorIcEC2B7v160006Ev, symObjAddr: 0x1DFC, symBinAddr: 0x100003794, symSize: 0x2C }
  - { offsetInCU: 0xB0F5, offset: 0xB0F5, size: 0x8, addend: 0x0, symName: __ZNSt3__116__non_trivial_ifILb1ENS_9allocatorIcEEEC2B7v160006Ev, symObjAddr: 0x1E28, symBinAddr: 0x1000037C0, symSize: 0x14 }
  - { offsetInCU: 0xB11F, offset: 0xB11F, size: 0x8, addend: 0x0, symName: __ZNKSt3__112basic_stringIcNS_11char_traitsIcEENS_9allocatorIcEEE13__get_pointerB7v160006Ev, symObjAddr: 0x1E50, symBinAddr: 0x1000037E8, symSize: 0x54 }
  - { offsetInCU: 0xB145, offset: 0xB145, size: 0x8, addend: 0x0, symName: __ZNKSt3__112basic_stringIcNS_11char_traitsIcEENS_9allocatorIcEEE9__is_longB7v160006Ev, symObjAddr: 0x1EA4, symBinAddr: 0x10000383C, symSize: 0x38 }
  - { offsetInCU: 0xB16B, offset: 0xB16B, size: 0x8, addend: 0x0, symName: __ZNKSt3__112basic_stringIcNS_11char_traitsIcEENS_9allocatorIcEEE18__get_long_pointerB7v160006Ev, symObjAddr: 0x1EDC, symBinAddr: 0x100003874, symSize: 0x28 }
  - { offsetInCU: 0xB191, offset: 0xB191, size: 0x8, addend: 0x0, symName: __ZNKSt3__112basic_stringIcNS_11char_traitsIcEENS_9allocatorIcEEE19__get_short_pointerB7v160006Ev, symObjAddr: 0x1F04, symBinAddr: 0x10000389C, symSize: 0x28 }
  - { offsetInCU: 0xB1B7, offset: 0xB1B7, size: 0x8, addend: 0x0, symName: __ZNKSt3__117__compressed_pairINS_12basic_stringIcNS_11char_traitsIcEENS_9allocatorIcEEE5__repES5_E5firstB7v160006Ev, symObjAddr: 0x1F2C, symBinAddr: 0x1000038C4, symSize: 0x24 }
  - { offsetInCU: 0xB1DD, offset: 0xB1DD, size: 0x8, addend: 0x0, symName: __ZNKSt3__122__compressed_pair_elemINS_12basic_stringIcNS_11char_traitsIcEENS_9allocatorIcEEE5__repELi0ELb0EE5__getB7v160006Ev, symObjAddr: 0x1F50, symBinAddr: 0x1000038E8, symSize: 0x14 }
  - { offsetInCU: 0xB203, offset: 0xB203, size: 0x8, addend: 0x0, symName: __ZNSt3__114pointer_traitsIPKcE10pointer_toB7v160006ERS1_, symObjAddr: 0x1F64, symBinAddr: 0x1000038FC, symSize: 0x14 }
  - { offsetInCU: 0xB226, offset: 0xB226, size: 0x8, addend: 0x0, symName: __ZNSt3__119ostreambuf_iteratorIcNS_11char_traitsIcEEEC2B7v160006ERNS_13basic_ostreamIcS2_EE, symObjAddr: 0x1F78, symBinAddr: 0x100003910, symSize: 0x54 }
  - { offsetInCU: 0xB25E, offset: 0xB25E, size: 0x8, addend: 0x0, symName: __ZNKSt3__19basic_iosIcNS_11char_traitsIcEEE5rdbufB7v160006Ev, symObjAddr: 0x1FCC, symBinAddr: 0x100003964, symSize: 0x24 }
  - { offsetInCU: 0xB286, offset: 0xB286, size: 0x8, addend: 0x0, symName: __ZNKSt3__18ios_base5rdbufB7v160006Ev, symObjAddr: 0x1FF0, symBinAddr: 0x100003988, symSize: 0x18 }
  - { offsetInCU: 0xB2AC, offset: 0xB2AC, size: 0x8, addend: 0x0, symName: __ZNSt3__111char_traitsIcE11eq_int_typeEii, symObjAddr: 0x2008, symBinAddr: 0x1000039A0, symSize: 0x28 }
  - { offsetInCU: 0xB2DD, offset: 0xB2DD, size: 0x8, addend: 0x0, symName: __ZNSt3__111char_traitsIcE3eofEv, symObjAddr: 0x2030, symBinAddr: 0x1000039C8, symSize: 0x8 }
  - { offsetInCU: 0xB2F1, offset: 0xB2F1, size: 0x8, addend: 0x0, symName: __ZNKSt3__19basic_iosIcNS_11char_traitsIcEEE5widenB7v160006Ec, symObjAddr: 0x2038, symBinAddr: 0x1000039D0, symSize: 0x84 }
  - { offsetInCU: 0xB35F, offset: 0xB35F, size: 0x8, addend: 0x0, symName: __ZNKSt3__15ctypeIcE5widenB7v160006Ec, symObjAddr: 0x20E8, symBinAddr: 0x100003A80, symSize: 0x38 }
  - { offsetInCU: 0xB394, offset: 0xB394, size: 0x8, addend: 0x0, symName: __ZNSt3__18ios_base8setstateB7v160006Ej, symObjAddr: 0x2120, symBinAddr: 0x100003AB8, symSize: 0x34 }
  - { offsetInCU: 0xB3CB, offset: 0xB3CB, size: 0x8, addend: 0x0, symName: __ZNSt3__121__list_const_iteratorIxPvEC2B7v160006ERKNS_15__list_iteratorIxS1_EE, symObjAddr: 0x2154, symBinAddr: 0x100003AEC, symSize: 0x24 }
  - { offsetInCU: 0xB404, offset: 0xB404, size: 0x8, addend: 0x0, symName: __ZNSt3__110__list_impIxNS_9allocatorIxEEE3endB7v160006Ev, symObjAddr: 0x2178, symBinAddr: 0x100003B10, symSize: 0x3C }
...
